target datalayout = "e-m:e-p270:32:32-p271:32:32-p272:64:64-i64:64-i128:128-f80:128-n8:16:32:64-S128"
target triple = "x86_64-pc-linux-gnu"

%struct.PJconsts = type { ptr, ptr, ptr, ptr, ptr, ptr, ptr, ptr, ptr, ptr, ptr, ptr, i32, ptr, ptr, ptr, ptr, ptr, ptr, ptr, ptr, double, double, double, double, double, double, double, double, double, double, double, double, double, double, double, double, double, double, double, double, double, double, i32, i32, i32, i32, i32, i32, i32, i32, i32, i32, i32, ptr, ptr, ptr, ptr, ptr, ptr, double, double, double, double, double, double, double, double, double, double, double, i32, [7 x double], i32, ptr, ptr, double, double, i32, [4 x i8], %"class.std::shared_ptr", i8, double, i8, %"class.std::__cxx11::basic_string", %"class.std::__cxx11::basic_string", %"class.std::__cxx11::basic_string", i8, %"class.std::vector", i32, %"class.std::vector.3", i32, i8, i8, i8, ptr }
%"class.std::shared_ptr" = type { %"class.std::__shared_ptr" }
%"class.std::__shared_ptr" = type { ptr, %"class.std::__shared_count" }
%"class.std::__shared_count" = type { ptr }
%"class.std::__cxx11::basic_string" = type { %"struct.std::__cxx11::basic_string<char>::_Alloc_hider", i64, %union.anon }
%"struct.std::__cxx11::basic_string<char>::_Alloc_hider" = type { ptr }
%union.anon = type { i64, [8 x i8] }
%"class.std::vector" = type { %"struct.std::_Vector_base" }
%"struct.std::_Vector_base" = type { %"struct.std::_Vector_base<osgeo::proj::operation::GridDescription, std::allocator<osgeo::proj::operation::GridDescription>>::_Vector_impl" }
%"struct.std::_Vector_base<osgeo::proj::operation::GridDescription, std::allocator<osgeo::proj::operation::GridDescription>>::_Vector_impl" = type { %"struct.std::_Vector_base<osgeo::proj::operation::GridDescription, std::allocator<osgeo::proj::operation::GridDescription>>::_Vector_impl_data" }
%"struct.std::_Vector_base<osgeo::proj::operation::GridDescription, std::allocator<osgeo::proj::operation::GridDescription>>::_Vector_impl_data" = type { ptr, ptr, ptr }
%"class.std::vector.3" = type { %"struct.std::_Vector_base.4" }
%"struct.std::_Vector_base.4" = type { %"struct.std::_Vector_base<PJCoordOperation, std::allocator<PJCoordOperation>>::_Vector_impl" }
%"struct.std::_Vector_base<PJCoordOperation, std::allocator<PJCoordOperation>>::_Vector_impl" = type { %"struct.std::_Vector_base<PJCoordOperation, std::allocator<PJCoordOperation>>::_Vector_impl_data" }
%"struct.std::_Vector_base<PJCoordOperation, std::allocator<PJCoordOperation>>::_Vector_impl_data" = type { ptr, ptr, ptr }
%union.PROJVALUE = type { double }
%"struct.(anonymous namespace)::pj_aeqd_data" = type { double, double, ptr, double, double, double, double, double, i32, %struct.geod_geodesic }
%struct.geod_geodesic = type { double, double, double, double, double, double, double, double, double, [6 x double], [15 x double], [21 x double] }

@.str.1 = private unnamed_addr constant [6 x i8] c"bguam\00", align 1

; Function Attrs: mustprogress uwtable
define hidden noundef ptr @_Z33pj_projection_specific_setup_aeqdP8PJconsts(ptr noundef %0) #0 {
  %2 = alloca ptr, align 8
  %3 = alloca ptr, align 8
  %4 = alloca ptr, align 8
  %5 = alloca i32, align 4
  %6 = alloca %union.PROJVALUE, align 8
  store ptr %0, ptr %3, align 8, !tbaa !3
  call void @llvm.lifetime.start.p0(i64 8, ptr %4) #8
  %7 = call noalias ptr @calloc(i64 noundef 1, i64 noundef 480) #9
  store ptr %7, ptr %4, align 8, !tbaa !41
  %8 = load ptr, ptr %4, align 8, !tbaa !41
  %9 = icmp eq ptr null, %8
  br i1 %9, label %10, label %13

10:                                               ; preds = %1
  %11 = load ptr, ptr %3, align 8, !tbaa !3
  %12 = call noundef ptr @_Z21pj_default_destructorP8PJconstsi(ptr noundef %11, i32 noundef 4096)
  store ptr %12, ptr %2, align 8
  store i32 1, ptr %5, align 4
  br label %198

13:                                               ; preds = %1
  %14 = load ptr, ptr %4, align 8, !tbaa !41
  %15 = load ptr, ptr %3, align 8, !tbaa !3
  %16 = getelementptr inbounds nuw %struct.PJconsts, ptr %15, i32 0, i32 11
  store ptr %14, ptr %16, align 8, !tbaa !43
  %17 = load ptr, ptr %3, align 8, !tbaa !3
  %18 = getelementptr inbounds nuw %struct.PJconsts, ptr %17, i32 0, i32 19
  store ptr @_ZL10destructorP8PJconstsi, ptr %18, align 8, !tbaa !44
  %19 = load ptr, ptr %4, align 8, !tbaa !41
  %20 = getelementptr inbounds nuw %"struct.(anonymous namespace)::pj_aeqd_data", ptr %19, i32 0, i32 9
  %21 = load ptr, ptr %3, align 8, !tbaa !3
  %22 = getelementptr inbounds nuw %struct.PJconsts, ptr %21, i32 0, i32 34
  %23 = load double, ptr %22, align 8, !tbaa !45
  call void @geod_init(ptr noundef %20, double noundef 1.000000e+00, double noundef %23)
  %24 = load ptr, ptr %3, align 8, !tbaa !3
  %25 = getelementptr inbounds nuw %struct.PJconsts, ptr %24, i32 0, i32 61
  %26 = load double, ptr %25, align 8, !tbaa !46
  %27 = call double @llvm.fabs.f64(double %26)
  %28 = fsub double %27, 0x3FF921FB54442D18
  %29 = call double @llvm.fabs.f64(double %28)
  %30 = fcmp olt double %29, 1.000000e-10
  br i1 %30, label %31, label %48

31:                                               ; preds = %13
  %32 = load ptr, ptr %3, align 8, !tbaa !3
  %33 = getelementptr inbounds nuw %struct.PJconsts, ptr %32, i32 0, i32 61
  %34 = load double, ptr %33, align 8, !tbaa !46
  %35 = fcmp olt double %34, 0.000000e+00
  %36 = select i1 %35, i32 1, i32 0
  %37 = load ptr, ptr %4, align 8, !tbaa !41
  %38 = getelementptr inbounds nuw %"struct.(anonymous namespace)::pj_aeqd_data", ptr %37, i32 0, i32 8
  store i32 %36, ptr %38, align 8, !tbaa !47
  %39 = load ptr, ptr %3, align 8, !tbaa !3
  %40 = getelementptr inbounds nuw %struct.PJconsts, ptr %39, i32 0, i32 61
  %41 = load double, ptr %40, align 8, !tbaa !46
  %42 = fcmp olt double %41, 0.000000e+00
  %43 = select i1 %42, double -1.000000e+00, double 1.000000e+00
  %44 = load ptr, ptr %4, align 8, !tbaa !41
  %45 = getelementptr inbounds nuw %"struct.(anonymous namespace)::pj_aeqd_data", ptr %44, i32 0, i32 0
  store double %43, ptr %45, align 8, !tbaa !52
  %46 = load ptr, ptr %4, align 8, !tbaa !41
  %47 = getelementptr inbounds nuw %"struct.(anonymous namespace)::pj_aeqd_data", ptr %46, i32 0, i32 1
  store double 0.000000e+00, ptr %47, align 8, !tbaa !53
  br label %77

48:                                               ; preds = %13
  %49 = load ptr, ptr %3, align 8, !tbaa !3
  %50 = getelementptr inbounds nuw %struct.PJconsts, ptr %49, i32 0, i32 61
  %51 = load double, ptr %50, align 8, !tbaa !46
  %52 = call double @llvm.fabs.f64(double %51)
  %53 = fcmp olt double %52, 1.000000e-10
  br i1 %53, label %54, label %61

54:                                               ; preds = %48
  %55 = load ptr, ptr %4, align 8, !tbaa !41
  %56 = getelementptr inbounds nuw %"struct.(anonymous namespace)::pj_aeqd_data", ptr %55, i32 0, i32 8
  store i32 2, ptr %56, align 8, !tbaa !47
  %57 = load ptr, ptr %4, align 8, !tbaa !41
  %58 = getelementptr inbounds nuw %"struct.(anonymous namespace)::pj_aeqd_data", ptr %57, i32 0, i32 0
  store double 0.000000e+00, ptr %58, align 8, !tbaa !52
  %59 = load ptr, ptr %4, align 8, !tbaa !41
  %60 = getelementptr inbounds nuw %"struct.(anonymous namespace)::pj_aeqd_data", ptr %59, i32 0, i32 1
  store double 1.000000e+00, ptr %60, align 8, !tbaa !53
  br label %76

61:                                               ; preds = %48
  %62 = load ptr, ptr %4, align 8, !tbaa !41
  %63 = getelementptr inbounds nuw %"struct.(anonymous namespace)::pj_aeqd_data", ptr %62, i32 0, i32 8
  store i32 3, ptr %63, align 8, !tbaa !47
  %64 = load ptr, ptr %3, align 8, !tbaa !3
  %65 = getelementptr inbounds nuw %struct.PJconsts, ptr %64, i32 0, i32 61
  %66 = load double, ptr %65, align 8, !tbaa !46
  %67 = call double @sin(double noundef %66) #8, !tbaa !54
  %68 = load ptr, ptr %4, align 8, !tbaa !41
  %69 = getelementptr inbounds nuw %"struct.(anonymous namespace)::pj_aeqd_data", ptr %68, i32 0, i32 0
  store double %67, ptr %69, align 8, !tbaa !52
  %70 = load ptr, ptr %3, align 8, !tbaa !3
  %71 = getelementptr inbounds nuw %struct.PJconsts, ptr %70, i32 0, i32 61
  %72 = load double, ptr %71, align 8, !tbaa !46
  %73 = call double @cos(double noundef %72) #8, !tbaa !54
  %74 = load ptr, ptr %4, align 8, !tbaa !41
  %75 = getelementptr inbounds nuw %"struct.(anonymous namespace)::pj_aeqd_data", ptr %74, i32 0, i32 1
  store double %73, ptr %75, align 8, !tbaa !53
  br label %76

76:                                               ; preds = %61, %54
  br label %77

77:                                               ; preds = %76, %31
  %78 = load ptr, ptr %3, align 8, !tbaa !3
  %79 = getelementptr inbounds nuw %struct.PJconsts, ptr %78, i32 0, i32 27
  %80 = load double, ptr %79, align 8, !tbaa !55
  %81 = fcmp oeq double %80, 0.000000e+00
  br i1 %81, label %82, label %87

82:                                               ; preds = %77
  %83 = load ptr, ptr %3, align 8, !tbaa !3
  %84 = getelementptr inbounds nuw %struct.PJconsts, ptr %83, i32 0, i32 14
  store ptr @_ZL14aeqd_s_inverse5PJ_XYP8PJconsts, ptr %84, align 8, !tbaa !56
  %85 = load ptr, ptr %3, align 8, !tbaa !3
  %86 = getelementptr inbounds nuw %struct.PJconsts, ptr %85, i32 0, i32 13
  store ptr @_ZL14aeqd_s_forward5PJ_LPP8PJconsts, ptr %86, align 8, !tbaa !57
  br label %196

87:                                               ; preds = %77
  %88 = load ptr, ptr %3, align 8, !tbaa !3
  %89 = getelementptr inbounds nuw %struct.PJconsts, ptr %88, i32 0, i32 36
  %90 = load double, ptr %89, align 8, !tbaa !58
  %91 = call noundef ptr @_Z7pj_enfnd(double noundef %90)
  %92 = load ptr, ptr %4, align 8, !tbaa !41
  %93 = getelementptr inbounds nuw %"struct.(anonymous namespace)::pj_aeqd_data", ptr %92, i32 0, i32 2
  store ptr %91, ptr %93, align 8, !tbaa !59
  %94 = icmp ne ptr %91, null
  br i1 %94, label %98, label %95

95:                                               ; preds = %87
  %96 = load ptr, ptr %3, align 8, !tbaa !3
  %97 = call noundef ptr @_Z21pj_default_destructorP8PJconstsi(ptr noundef %96, i32 noundef 0)
  store ptr %97, ptr %2, align 8
  store i32 1, ptr %5, align 4
  br label %198

98:                                               ; preds = %87
  call void @llvm.lifetime.start.p0(i64 8, ptr %6) #8
  %99 = load ptr, ptr %3, align 8, !tbaa !3
  %100 = getelementptr inbounds nuw %struct.PJconsts, ptr %99, i32 0, i32 0
  %101 = load ptr, ptr %100, align 8, !tbaa !60
  %102 = load ptr, ptr %3, align 8, !tbaa !3
  %103 = getelementptr inbounds nuw %struct.PJconsts, ptr %102, i32 0, i32 3
  %104 = load ptr, ptr %103, align 8, !tbaa !61
  %105 = call i64 @_Z8pj_paramP6pj_ctxP8ARG_listPKc(ptr noundef %101, ptr noundef %104, ptr noundef @.str.1)
  %106 = getelementptr inbounds nuw %union.PROJVALUE, ptr %6, i32 0, i32 0
  store i64 %105, ptr %106, align 8
  %107 = load i32, ptr %6, align 8, !tbaa !62
  %108 = icmp ne i32 %107, 0
  call void @llvm.lifetime.end.p0(i64 8, ptr %6) #8
  br i1 %108, label %109, label %129

109:                                              ; preds = %98
  %110 = load ptr, ptr %3, align 8, !tbaa !3
  %111 = getelementptr inbounds nuw %struct.PJconsts, ptr %110, i32 0, i32 61
  %112 = load double, ptr %111, align 8, !tbaa !46
  %113 = load ptr, ptr %4, align 8, !tbaa !41
  %114 = getelementptr inbounds nuw %"struct.(anonymous namespace)::pj_aeqd_data", ptr %113, i32 0, i32 0
  %115 = load double, ptr %114, align 8, !tbaa !52
  %116 = load ptr, ptr %4, align 8, !tbaa !41
  %117 = getelementptr inbounds nuw %"struct.(anonymous namespace)::pj_aeqd_data", ptr %116, i32 0, i32 1
  %118 = load double, ptr %117, align 8, !tbaa !53
  %119 = load ptr, ptr %4, align 8, !tbaa !41
  %120 = getelementptr inbounds nuw %"struct.(anonymous namespace)::pj_aeqd_data", ptr %119, i32 0, i32 2
  %121 = load ptr, ptr %120, align 8, !tbaa !59
  %122 = call noundef double @_Z7pj_mlfndddPKd(double noundef %112, double noundef %115, double noundef %118, ptr noundef %121)
  %123 = load ptr, ptr %4, align 8, !tbaa !41
  %124 = getelementptr inbounds nuw %"struct.(anonymous namespace)::pj_aeqd_data", ptr %123, i32 0, i32 3
  store double %122, ptr %124, align 8, !tbaa !63
  %125 = load ptr, ptr %3, align 8, !tbaa !3
  %126 = getelementptr inbounds nuw %struct.PJconsts, ptr %125, i32 0, i32 14
  store ptr @_ZL10e_guam_inv5PJ_XYP8PJconsts, ptr %126, align 8, !tbaa !56
  %127 = load ptr, ptr %3, align 8, !tbaa !3
  %128 = getelementptr inbounds nuw %struct.PJconsts, ptr %127, i32 0, i32 13
  store ptr @_ZL10e_guam_fwd5PJ_LPP8PJconsts, ptr %128, align 8, !tbaa !57
  br label %195

129:                                              ; preds = %98
  %130 = load ptr, ptr %4, align 8, !tbaa !41
  %131 = getelementptr inbounds nuw %"struct.(anonymous namespace)::pj_aeqd_data", ptr %130, i32 0, i32 8
  %132 = load i32, ptr %131, align 8, !tbaa !47
  switch i32 %132, label %190 [
    i32 0, label %133
    i32 1, label %140
    i32 2, label %147
    i32 3, label %147
  ]

133:                                              ; preds = %129
  %134 = load ptr, ptr %4, align 8, !tbaa !41
  %135 = getelementptr inbounds nuw %"struct.(anonymous namespace)::pj_aeqd_data", ptr %134, i32 0, i32 2
  %136 = load ptr, ptr %135, align 8, !tbaa !59
  %137 = call noundef double @_Z7pj_mlfndddPKd(double noundef 0x3FF921FB54442D18, double noundef 1.000000e+00, double noundef 0.000000e+00, ptr noundef %136)
  %138 = load ptr, ptr %4, align 8, !tbaa !41
  %139 = getelementptr inbounds nuw %"struct.(anonymous namespace)::pj_aeqd_data", ptr %138, i32 0, i32 5
  store double %137, ptr %139, align 8, !tbaa !64
  br label %190

140:                                              ; preds = %129
  %141 = load ptr, ptr %4, align 8, !tbaa !41
  %142 = getelementptr inbounds nuw %"struct.(anonymous namespace)::pj_aeqd_data", ptr %141, i32 0, i32 2
  %143 = load ptr, ptr %142, align 8, !tbaa !59
  %144 = call noundef double @_Z7pj_mlfndddPKd(double noundef 0xBFF921FB54442D18, double noundef -1.000000e+00, double noundef 0.000000e+00, ptr noundef %143)
  %145 = load ptr, ptr %4, align 8, !tbaa !41
  %146 = getelementptr inbounds nuw %"struct.(anonymous namespace)::pj_aeqd_data", ptr %145, i32 0, i32 5
  store double %144, ptr %146, align 8, !tbaa !64
  br label %190

147:                                              ; preds = %129, %129
  %148 = load ptr, ptr %3, align 8, !tbaa !3
  %149 = getelementptr inbounds nuw %struct.PJconsts, ptr %148, i32 0, i32 27
  %150 = load double, ptr %149, align 8, !tbaa !55
  %151 = load ptr, ptr %4, align 8, !tbaa !41
  %152 = getelementptr inbounds nuw %"struct.(anonymous namespace)::pj_aeqd_data", ptr %151, i32 0, i32 0
  %153 = load double, ptr %152, align 8, !tbaa !52
  %154 = fmul double %150, %153
  %155 = load ptr, ptr %4, align 8, !tbaa !41
  %156 = getelementptr inbounds nuw %"struct.(anonymous namespace)::pj_aeqd_data", ptr %155, i32 0, i32 0
  %157 = load double, ptr %156, align 8, !tbaa !52
  %158 = fneg double %154
  %159 = call double @llvm.fmuladd.f64(double %158, double %157, double 1.000000e+00)
  %160 = call double @sqrt(double noundef %159) #8, !tbaa !54
  %161 = fdiv double 1.000000e+00, %160
  %162 = load ptr, ptr %4, align 8, !tbaa !41
  %163 = getelementptr inbounds nuw %"struct.(anonymous namespace)::pj_aeqd_data", ptr %162, i32 0, i32 4
  store double %161, ptr %163, align 8, !tbaa !65
  %164 = load ptr, ptr %3, align 8, !tbaa !3
  %165 = getelementptr inbounds nuw %struct.PJconsts, ptr %164, i32 0, i32 26
  %166 = load double, ptr %165, align 8, !tbaa !66
  %167 = load ptr, ptr %3, align 8, !tbaa !3
  %168 = getelementptr inbounds nuw %struct.PJconsts, ptr %167, i32 0, i32 32
  %169 = load double, ptr %168, align 8, !tbaa !67
  %170 = call double @sqrt(double noundef %169) #8, !tbaa !54
  %171 = fdiv double %166, %170
  %172 = load ptr, ptr %4, align 8, !tbaa !41
  %173 = getelementptr inbounds nuw %"struct.(anonymous namespace)::pj_aeqd_data", ptr %172, i32 0, i32 6
  store double %171, ptr %173, align 8, !tbaa !68
  %174 = load ptr, ptr %4, align 8, !tbaa !41
  %175 = getelementptr inbounds nuw %"struct.(anonymous namespace)::pj_aeqd_data", ptr %174, i32 0, i32 0
  %176 = load double, ptr %175, align 8, !tbaa !52
  %177 = load ptr, ptr %4, align 8, !tbaa !41
  %178 = getelementptr inbounds nuw %"struct.(anonymous namespace)::pj_aeqd_data", ptr %177, i32 0, i32 6
  %179 = load double, ptr %178, align 8, !tbaa !68
  %180 = fmul double %176, %179
  %181 = load ptr, ptr %4, align 8, !tbaa !41
  %182 = getelementptr inbounds nuw %"struct.(anonymous namespace)::pj_aeqd_data", ptr %181, i32 0, i32 7
  store double %180, ptr %182, align 8, !tbaa !69
  %183 = load ptr, ptr %4, align 8, !tbaa !41
  %184 = getelementptr inbounds nuw %"struct.(anonymous namespace)::pj_aeqd_data", ptr %183, i32 0, i32 1
  %185 = load double, ptr %184, align 8, !tbaa !53
  %186 = load ptr, ptr %4, align 8, !tbaa !41
  %187 = getelementptr inbounds nuw %"struct.(anonymous namespace)::pj_aeqd_data", ptr %186, i32 0, i32 6
  %188 = load double, ptr %187, align 8, !tbaa !68
  %189 = fmul double %188, %185
  store double %189, ptr %187, align 8, !tbaa !68
  br label %190

190:                                              ; preds = %129, %147, %140, %133
  %191 = load ptr, ptr %3, align 8, !tbaa !3
  %192 = getelementptr inbounds nuw %struct.PJconsts, ptr %191, i32 0, i32 14
  store ptr @_ZL14aeqd_e_inverse5PJ_XYP8PJconsts, ptr %192, align 8, !tbaa !56
  %193 = load ptr, ptr %3, align 8, !tbaa !3
  %194 = getelementptr inbounds nuw %struct.PJconsts, ptr %193, i32 0, i32 13
  store ptr @_ZL14aeqd_e_forward5PJ_LPP8PJconsts, ptr %194, align 8, !tbaa !57
  br label %195

195:                                              ; preds = %190, %109
  br label %196

196:                                              ; preds = %195, %82
  %197 = load ptr, ptr %3, align 8, !tbaa !3
  store ptr %197, ptr %2, align 8
  store i32 1, ptr %5, align 4
  br label %198

198:                                              ; preds = %196, %95, %10
  call void @llvm.lifetime.end.p0(i64 8, ptr %4) #8
  %199 = load ptr, ptr %2, align 8
  ret ptr %199
}