; Function Attrs: mustprogress uwtable
define hidden noundef ptr @_Z33pj_projection_specific_setup_aeqdP8PJconsts(ptr noundef %0) local_unnamed_addr #0 {
  %2 = tail call noalias dereferenceable_or_null(480) ptr @calloc(i64 noundef 1, i64 noundef 480) #7
  %3 = icmp eq ptr %2, null
  br i1 %3, label %4, label %6

4:                                                ; preds = %1
  %5 = tail call noundef ptr @_Z21pj_default_destructorP8PJconstsi(ptr noundef %0, i32 noundef 4096)
  br label %96

6:                                                ; preds = %1
  %7 = getelementptr inbounds nuw i8, ptr %0, i64 88
  store ptr %2, ptr %7, align 8, !tbaa !40
  %8 = getelementptr inbounds nuw i8, ptr %0, i64 152
  store ptr @_ZL10destructorP8PJconstsi, ptr %8, align 8, !tbaa !41
  %9 = getelementptr inbounds nuw i8, ptr %2, i64 72
  %10 = getelementptr inbounds nuw i8, ptr %0, i64 272
  %11 = load double, ptr %10, align 8, !tbaa !42
  tail call void @geod_init(ptr noundef nonnull %9, double noundef 1.000000e+00, double noundef %11)
  %12 = getelementptr inbounds nuw i8, ptr %0, i64 448
  %13 = load double, ptr %12, align 8, !tbaa !43
  %14 = tail call double @llvm.fabs.f64(double %13)
  %15 = fadd double %14, 0xBFF921FB54442D18
  %16 = tail call double @llvm.fabs.f64(double %15)
  %17 = fcmp olt double %16, 1.000000e-10
  br i1 %17, label %18, label %23

18:                                               ; preds = %6
  %19 = fcmp olt double %13, 0.000000e+00
  %20 = zext i1 %19 to i32
  %21 = getelementptr inbounds nuw i8, ptr %2, i64 64
  store i32 %20, ptr %21, align 8, !tbaa !44
  %22 = select i1 %19, double -1.000000e+00, double 1.000000e+00
  store double %22, ptr %2, align 8, !tbaa !49
  br label %30

23:                                               ; preds = %6
  %24 = fcmp olt double %14, 1.000000e-10
  %25 = getelementptr inbounds nuw i8, ptr %2, i64 64
  br i1 %24, label %26, label %27

26:                                               ; preds = %23
  store i32 2, ptr %25, align 8, !tbaa !44
  store double 0.000000e+00, ptr %2, align 8, !tbaa !49
  br label %30

27:                                               ; preds = %23
  store i32 3, ptr %25, align 8, !tbaa !44
  %28 = tail call double @sin(double noundef %13) #8, !tbaa !50
  store double %28, ptr %2, align 8, !tbaa !49
  %29 = tail call double @cos(double noundef %13) #8, !tbaa !50
  br label %30

30:                                               ; preds = %26, %27, %18
  %.sink = phi double [ 1.000000e+00, %26 ], [ %29, %27 ], [ 0.000000e+00, %18 ]
  %31 = getelementptr inbounds nuw i8, ptr %2, i64 8
  store double %.sink, ptr %31, align 8, !tbaa !51
  %32 = getelementptr inbounds nuw i8, ptr %0, i64 216
  %33 = load double, ptr %32, align 8, !tbaa !52
  %34 = fcmp oeq double %33, 0.000000e+00
  br i1 %34, label %35, label %38

35:                                               ; preds = %30
  %36 = getelementptr inbounds nuw i8, ptr %0, i64 112
  store ptr @_ZL14aeqd_s_inverse5PJ_XYP8PJconsts, ptr %36, align 8, !tbaa !53
  %37 = getelementptr inbounds nuw i8, ptr %0, i64 104
  store ptr @_ZL14aeqd_s_forward5PJ_LPP8PJconsts, ptr %37, align 8, !tbaa !54
  br label %96

38:                                               ; preds = %30
  %39 = getelementptr inbounds nuw i8, ptr %0, i64 288
  %40 = load double, ptr %39, align 8, !tbaa !55
  %41 = tail call noundef ptr @_Z7pj_enfnd(double noundef %40)
  %42 = getelementptr inbounds nuw i8, ptr %2, i64 16
  store ptr %41, ptr %42, align 8, !tbaa !56
  %.not = icmp eq ptr %41, null
  br i1 %.not, label %43, label %45

43:                                               ; preds = %38
  %44 = tail call noundef ptr @_Z21pj_default_destructorP8PJconstsi(ptr noundef nonnull %0, i32 noundef 0)
  br label %96

45:                                               ; preds = %38
  %46 = load ptr, ptr %0, align 8, !tbaa !57
  %47 = getelementptr inbounds nuw i8, ptr %0, i64 24
  %48 = load ptr, ptr %47, align 8, !tbaa !58
  %49 = tail call i64 @_Z8pj_paramP6pj_ctxP8ARG_listPKc(ptr noundef %46, ptr noundef %48, ptr noundef nonnull @.str.1)
  %50 = and i64 %49, 4294967295
  %.not59 = icmp eq i64 %50, 0
  br i1 %.not59, label %61, label %51

51:                                               ; preds = %45
  %52 = load double, ptr %12, align 8, !tbaa !43
  %53 = load double, ptr %2, align 8, !tbaa !49
  %54 = getelementptr inbounds nuw i8, ptr %2, i64 8
  %55 = load double, ptr %54, align 8, !tbaa !51
  %56 = load ptr, ptr %42, align 8, !tbaa !56
  %57 = tail call noundef double @_Z7pj_mlfndddPKd(double noundef %52, double noundef %53, double noundef %55, ptr noundef %56)
  %58 = getelementptr inbounds nuw i8, ptr %2, i64 24
  store double %57, ptr %58, align 8, !tbaa !59
  %59 = getelementptr inbounds nuw i8, ptr %0, i64 112
  store ptr @_ZL10e_guam_inv5PJ_XYP8PJconsts, ptr %59, align 8, !tbaa !53
  %60 = getelementptr inbounds nuw i8, ptr %0, i64 104
  store ptr @_ZL10e_guam_fwd5PJ_LPP8PJconsts, ptr %60, align 8, !tbaa !54
  br label %96

61:                                               ; preds = %45
  %62 = getelementptr inbounds nuw i8, ptr %2, i64 64
  %63 = load i32, ptr %62, align 8, !tbaa !44
  switch i32 %63, label %93 [
    i32 0, label %64
    i32 1, label %68
    i32 2, label %72
    i32 3, label %72
  ]

64:                                               ; preds = %61
  %65 = load ptr, ptr %42, align 8, !tbaa !56
  %66 = tail call noundef double @_Z7pj_mlfndddPKd(double noundef 0x3FF921FB54442D18, double noundef 1.000000e+00, double noundef 0.000000e+00, ptr noundef %65)
  %67 = getelementptr inbounds nuw i8, ptr %2, i64 40
  store double %66, ptr %67, align 8, !tbaa !60
  br label %93

68:                                               ; preds = %61
  %69 = load ptr, ptr %42, align 8, !tbaa !56
  %70 = tail call noundef double @_Z7pj_mlfndddPKd(double noundef 0xBFF921FB54442D18, double noundef -1.000000e+00, double noundef 0.000000e+00, ptr noundef %69)
  %71 = getelementptr inbounds nuw i8, ptr %2, i64 40
  store double %70, ptr %71, align 8, !tbaa !60
  br label %93

72:                                               ; preds = %61, %61
  %73 = load double, ptr %32, align 8, !tbaa !52
  %74 = load double, ptr %2, align 8, !tbaa !49
  %75 = fneg double %74
  %76 = fmul double %73, %75
  %77 = tail call double @llvm.fmuladd.f64(double %76, double %74, double 1.000000e+00)
  %78 = tail call double @sqrt(double noundef %77) #8, !tbaa !50
  %79 = fdiv double 1.000000e+00, %78
  %80 = getelementptr inbounds nuw i8, ptr %2, i64 32
  store double %79, ptr %80, align 8, !tbaa !61
  %81 = getelementptr inbounds nuw i8, ptr %0, i64 208
  %82 = load double, ptr %81, align 8, !tbaa !62
  %83 = getelementptr inbounds nuw i8, ptr %0, i64 256
  %84 = load double, ptr %83, align 8, !tbaa !63
  %85 = tail call double @sqrt(double noundef %84) #8, !tbaa !50
  %86 = fdiv double %82, %85
  %87 = getelementptr inbounds nuw i8, ptr %2, i64 48
  %88 = fmul double %74, %86
  %89 = getelementptr inbounds nuw i8, ptr %2, i64 56
  store double %88, ptr %89, align 8, !tbaa !64
  %90 = getelementptr inbounds nuw i8, ptr %2, i64 8
  %91 = load double, ptr %90, align 8, !tbaa !51
  %92 = fmul double %86, %91
  store double %92, ptr %87, align 8, !tbaa !65
  br label %93

93:                                               ; preds = %72, %68, %64, %61
  %94 = getelementptr inbounds nuw i8, ptr %0, i64 112
  store ptr @_ZL14aeqd_e_inverse5PJ_XYP8PJconsts, ptr %94, align 8, !tbaa !53
  %95 = getelementptr inbounds nuw i8, ptr %0, i64 104
  store ptr @_ZL14aeqd_e_forward5PJ_LPP8PJconsts, ptr %95, align 8, !tbaa !54
  br label %96

96:                                               ; preds = %35, %93, %51, %43, %4
  %.0 = phi ptr [ %5, %4 ], [ %44, %43 ], [ %0, %51 ], [ %0, %93 ], [ %0, %35 ]
  ret ptr %.0
}